target datalayout = "e-m:e-p270:32:32-p271:32:32-p272:64:64-i64:64-i128:128-f80:128-n8:16:32:64-S128"
target triple = "x86_64-pc-linux-gnu"

%struct.AVProbeData = type { ptr, ptr, i32, ptr }

@.str.11 = private unnamed_addr constant [5 x i8] c"WAVE\00", align 1
@.str.12 = private unnamed_addr constant [5 x i8] c"RIFF\00", align 1
@.str.13 = private unnamed_addr constant [5 x i8] c"RIFX\00", align 1
@.str.14 = private unnamed_addr constant [5 x i8] c"RF64\00", align 1
@.str.15 = private unnamed_addr constant [5 x i8] c"BW64\00", align 1
@.str.16 = private unnamed_addr constant [5 x i8] c"ds64\00", align 1

; Function Attrs: nounwind uwtable
define internal i32 @wav_probe(ptr noundef %0) #0 {
  %2 = alloca i32, align 4
  %3 = alloca ptr, align 8
  store ptr %0, ptr %3, align 8, !tbaa !4
  %4 = load ptr, ptr %3, align 8, !tbaa !4
  %5 = getelementptr inbounds nuw %struct.AVProbeData, ptr %4, i32 0, i32 2
  %6 = load i32, ptr %5, align 8, !tbaa !9
  %7 = icmp sle i32 %6, 32
  br i1 %7, label %8, label %9

8:                                                ; preds = %1
  store i32 0, ptr %2, align 4
  br label %52

9:                                                ; preds = %1
  %10 = load ptr, ptr %3, align 8, !tbaa !4
  %11 = getelementptr inbounds nuw %struct.AVProbeData, ptr %10, i32 0, i32 1
  %12 = load ptr, ptr %11, align 8, !tbaa !13
  %13 = getelementptr inbounds i8, ptr %12, i64 8
  %14 = call i32 @memcmp(ptr noundef %13, ptr noundef @.str.11, i64 noundef 4) #11
  %15 = icmp ne i32 %14, 0
  br i1 %15, label %51, label %16

16:                                               ; preds = %9
  %17 = load ptr, ptr %3, align 8, !tbaa !4
  %18 = getelementptr inbounds nuw %struct.AVProbeData, ptr %17, i32 0, i32 1
  %19 = load ptr, ptr %18, align 8, !tbaa !13
  %20 = call i32 @memcmp(ptr noundef %19, ptr noundef @.str.12, i64 noundef 4) #11
  %21 = icmp ne i32 %20, 0
  br i1 %21, label %22, label %28

22:                                               ; preds = %16
  %23 = load ptr, ptr %3, align 8, !tbaa !4
  %24 = getelementptr inbounds nuw %struct.AVProbeData, ptr %23, i32 0, i32 1
  %25 = load ptr, ptr %24, align 8, !tbaa !13
  %26 = call i32 @memcmp(ptr noundef %25, ptr noundef @.str.13, i64 noundef 4) #11
  %27 = icmp ne i32 %26, 0
  br i1 %27, label %29, label %28

28:                                               ; preds = %22, %16
  store i32 99, ptr %2, align 4
  br label %52

29:                                               ; preds = %22
  %30 = load ptr, ptr %3, align 8, !tbaa !4
  %31 = getelementptr inbounds nuw %struct.AVProbeData, ptr %30, i32 0, i32 1
  %32 = load ptr, ptr %31, align 8, !tbaa !13
  %33 = call i32 @memcmp(ptr noundef %32, ptr noundef @.str.14, i64 noundef 4) #11
  %34 = icmp ne i32 %33, 0
  br i1 %34, label %35, label %41

35:                                               ; preds = %29
  %36 = load ptr, ptr %3, align 8, !tbaa !4
  %37 = getelementptr inbounds nuw %struct.AVProbeData, ptr %36, i32 0, i32 1
  %38 = load ptr, ptr %37, align 8, !tbaa !13
  %39 = call i32 @memcmp(ptr noundef %38, ptr noundef @.str.15, i64 noundef 4) #11
  %40 = icmp ne i32 %39, 0
  br i1 %40, label %49, label %41

41:                                               ; preds = %35, %29
  %42 = load ptr, ptr %3, align 8, !tbaa !4
  %43 = getelementptr inbounds nuw %struct.AVProbeData, ptr %42, i32 0, i32 1
  %44 = load ptr, ptr %43, align 8, !tbaa !13
  %45 = getelementptr inbounds i8, ptr %44, i64 12
  %46 = call i32 @memcmp(ptr noundef %45, ptr noundef @.str.16, i64 noundef 4) #11
  %47 = icmp ne i32 %46, 0
  br i1 %47, label %49, label %48

48:                                               ; preds = %41
  store i32 100, ptr %2, align 4
  br label %52

49:                                               ; preds = %41, %35
  br label %50

50:                                               ; preds = %49
  br label %51

51:                                               ; preds = %50, %9
  store i32 0, ptr %2, align 4
  br label %52

52:                                               ; preds = %51, %48, %28, %8
  %53 = load i32, ptr %2, align 4
  ret i32 %53
}