; Function Attrs: mustprogress nofree norecurse nounwind willreturn memory(read, inaccessiblemem: none) uwtable
define internal range(i32 0, 101) i32 @wav_probe(ptr noundef readonly captures(none) %0) #0 {
  %2 = getelementptr inbounds nuw i8, ptr %0, i64 16
  %3 = load i32, ptr %2, align 8, !tbaa !4
  %4 = icmp slt i32 %3, 33
  br i1 %4, label %16, label %5

5:                                                ; preds = %1
  %6 = getelementptr inbounds nuw i8, ptr %0, i64 8
  %7 = load ptr, ptr %6, align 8, !tbaa !11
  %8 = getelementptr inbounds nuw i8, ptr %7, i64 8
  %bcmp = tail call i32 @bcmp(ptr noundef nonnull dereferenceable(4) %8, ptr noundef nonnull dereferenceable(4) @.str.11, i64 4)
  %.not = icmp eq i32 %bcmp, 0
  br i1 %.not, label %9, label %15

9:                                                ; preds = %5
  %bcmp7 = tail call i32 @bcmp(ptr noundef nonnull dereferenceable(4) %7, ptr noundef nonnull dereferenceable(4) @.str.12, i64 4)
  %.not8 = icmp eq i32 %bcmp7, 0
  br i1 %.not8, label %16, label %10

10:                                               ; preds = %9
  %bcmp9 = tail call i32 @bcmp(ptr noundef nonnull dereferenceable(4) %7, ptr noundef nonnull dereferenceable(4) @.str.13, i64 4)
  %.not10 = icmp eq i32 %bcmp9, 0
  br i1 %.not10, label %16, label %11

11:                                               ; preds = %10
  %bcmp11 = tail call i32 @bcmp(ptr noundef nonnull dereferenceable(4) %7, ptr noundef nonnull dereferenceable(4) @.str.14, i64 4)
  %.not12 = icmp eq i32 %bcmp11, 0
  br i1 %.not12, label %13, label %12

12:                                               ; preds = %11
  %bcmp13 = tail call i32 @bcmp(ptr noundef nonnull dereferenceable(4) %7, ptr noundef nonnull dereferenceable(4) @.str.15, i64 4)
  %.not14 = icmp eq i32 %bcmp13, 0
  br i1 %.not14, label %13, label %15

13:                                               ; preds = %12, %11
  %14 = getelementptr inbounds nuw i8, ptr %7, i64 12
  %bcmp15 = tail call i32 @bcmp(ptr noundef nonnull dereferenceable(4) %14, ptr noundef nonnull dereferenceable(4) @.str.16, i64 4)
  %.not16 = icmp eq i32 %bcmp15, 0
  br i1 %.not16, label %16, label %15

15:                                               ; preds = %13, %12, %5
  br label %16

16:                                               ; preds = %13, %9, %10, %1, %15
  %.0 = phi i32 [ 0, %15 ], [ 0, %1 ], [ 99, %10 ], [ 99, %9 ], [ 100, %13 ]
  ret i32 %.0
}